; Function Attrs: nounwind uwtable
define internal noundef i32 @bf_cbc_cipher(ptr noundef %0, ptr noundef %1, ptr noundef %2, i64 noundef %3) #1 {
  %5 = icmp ugt i64 %3, 1073741823
  br i1 %5, label %.lr.ph, label %._crit_edge

.lr.ph:                                           ; preds = %4
  %6 = getelementptr inbounds nuw i8, ptr %0, i64 40
  br label %7

7:                                                ; preds = %.lr.ph, %7
  %.019 = phi i64 [ %3, %.lr.ph ], [ %10, %7 ]
  %.01518 = phi ptr [ %2, %.lr.ph ], [ %11, %7 ]
  %.01617 = phi ptr [ %1, %.lr.ph ], [ %12, %7 ]
  %8 = tail call ptr @EVP_CIPHER_CTX_get_cipher_data(ptr noundef %0) #5
  %9 = tail call i32 @EVP_CIPHER_CTX_is_encrypting(ptr noundef %0) #5
  tail call void @BF_cbc_encrypt(ptr noundef %.01518, ptr noundef %.01617, i64 noundef 1073741824, ptr noundef %8, ptr noundef nonnull %6, i32 noundef %9) #5
  %10 = add i64 %.019, -1073741824
  %11 = getelementptr inbounds nuw i8, ptr %.01518, i64 1073741824
  %12 = getelementptr inbounds nuw i8, ptr %.01617, i64 1073741824
  %13 = icmp ugt i64 %10, 1073741823
  br i1 %13, label %7, label %._crit_edge, !llvm.loop !3

._crit_edge:                                      ; preds = %7, %4
  %.016.lcssa = phi ptr [ %1, %4 ], [ %12, %7 ]
  %.015.lcssa = phi ptr [ %2, %4 ], [ %11, %7 ]
  %.0.lcssa = phi i64 [ %3, %4 ], [ %10, %7 ]
  %.not = icmp eq i64 %.0.lcssa, 0
  br i1 %.not, label %18, label %14

14:                                               ; preds = %._crit_edge
  %15 = tail call ptr @EVP_CIPHER_CTX_get_cipher_data(ptr noundef %0) #5
  %16 = getelementptr inbounds nuw i8, ptr %0, i64 40
  %17 = tail call i32 @EVP_CIPHER_CTX_is_encrypting(ptr noundef %0) #5
  tail call void @BF_cbc_encrypt(ptr noundef %.015.lcssa, ptr noundef %.016.lcssa, i64 noundef %.0.lcssa, ptr noundef %15, ptr noundef nonnull %16, i32 noundef %17) #5
  br label %18

18:                                               ; preds = %14, %._crit_edge
  ret i32 1
}